target datalayout = "e-m:e-p270:32:32-p271:32:32-p272:64:64-i64:64-i128:128-f80:128-n8:16:32:64-S128"
target triple = "x86_64-pc-linux-gnu"

%struct.ml_dsa_key_st = type { ptr, ptr, ptr, ptr, [32 x i8], [64 x i8], [32 x i8], ptr, ptr, ptr, i32, i32, %struct.vector_st, %struct.vector_st, %struct.vector_st, %struct.vector_st }
%struct.vector_st = type { ptr, i64 }
%struct.ml_dsa_params_st = type { ptr, i32, i32, i32, i32, i32, i64, i64, i32, i32, i32, i32, i64, i64, i64 }

@.str.3 = private unnamed_addr constant [41 x i8] c"../openssl/crypto/ml_dsa/ml_dsa_vector.h\00", align 1

; Function Attrs: inlinehint nounwind uwtable
define internal i32 @vector_alloc(ptr noundef %0, i64 noundef %1) #3 {
  %3 = alloca i32, align 4
  %4 = alloca ptr, align 8
  %5 = alloca i64, align 8
  store ptr %0, ptr %4, align 8, !tbaa !35
  store i64 %1, ptr %5, align 8, !tbaa !23
  %6 = load i64, ptr %5, align 8, !tbaa !23
  %7 = mul i64 %6, 1024
  %8 = call noalias ptr @CRYPTO_malloc(i64 noundef %7, ptr noundef @.str.3, i32 noundef 36)
  %9 = load ptr, ptr %4, align 8, !tbaa !35
  %10 = getelementptr inbounds nuw %struct.vector_st, ptr %9, i32 0, i32 0
  store ptr %8, ptr %10, align 8, !tbaa !37
  %11 = load ptr, ptr %4, align 8, !tbaa !35
  %12 = getelementptr inbounds nuw %struct.vector_st, ptr %11, i32 0, i32 0
  %13 = load ptr, ptr %12, align 8, !tbaa !37
  %14 = icmp eq ptr %13, null
  br i1 %14, label %15, label %16

15:                                               ; preds = %2
  store i32 0, ptr %3, align 4
  br label %20

16:                                               ; preds = %2
  %17 = load i64, ptr %5, align 8, !tbaa !23
  %18 = load ptr, ptr %4, align 8, !tbaa !35
  %19 = getelementptr inbounds nuw %struct.vector_st, ptr %18, i32 0, i32 1
  store i64 %17, ptr %19, align 8, !tbaa !38
  store i32 1, ptr %3, align 4
  br label %20

20:                                               ; preds = %16, %15
  %21 = load i32, ptr %3, align 4
  ret i32 %21
}

; Function Attrs: nounwind uwtable
define i32 @ossl_ml_dsa_key_pub_alloc(ptr noundef %0) #0 {
  %2 = alloca i32, align 4
  %3 = alloca ptr, align 8
  store ptr %0, ptr %3, align 8, !tbaa !3
  %4 = load ptr, ptr %3, align 8, !tbaa !3
  %5 = getelementptr inbounds nuw %struct.ml_dsa_key_st, ptr %4, i32 0, i32 12
  %6 = getelementptr inbounds nuw %struct.vector_st, ptr %5, i32 0, i32 0
  %7 = load ptr, ptr %6, align 8, !tbaa !33
  %8 = icmp ne ptr %7, null
  br i1 %8, label %9, label %10

9:                                                ; preds = %1
  store i32 0, ptr %2, align 4
  br label %19

10:                                               ; preds = %1
  %11 = load ptr, ptr %3, align 8, !tbaa !3
  %12 = getelementptr inbounds nuw %struct.ml_dsa_key_st, ptr %11, i32 0, i32 12
  %13 = load ptr, ptr %3, align 8, !tbaa !3
  %14 = getelementptr inbounds nuw %struct.ml_dsa_key_st, ptr %13, i32 0, i32 1
  %15 = load ptr, ptr %14, align 8, !tbaa !8
  %16 = getelementptr inbounds nuw %struct.ml_dsa_params_st, ptr %15, i32 0, i32 6
  %17 = load i64, ptr %16, align 8, !tbaa !34
  %18 = call i32 @vector_alloc(ptr noundef %12, i64 noundef %17)
  store i32 %18, ptr %2, align 4
  br label %19

19:                                               ; preds = %10, %9
  %20 = load i32, ptr %2, align 4
  ret i32 %20
}