; Function Attrs: nounwind uwtable
define range(i32 0, 2) i32 @ossl_ml_dsa_key_pub_alloc(ptr noundef captures(none) %0) local_unnamed_addr #1 {
  %2 = getelementptr inbounds nuw i8, ptr %0, i64 192
  %3 = load ptr, ptr %2, align 8, !tbaa !26
  %.not = icmp eq ptr %3, null
  br i1 %.not, label %4, label %vector_alloc.exit

4:                                                ; preds = %1
  %5 = getelementptr inbounds nuw i8, ptr %0, i64 8
  %6 = load ptr, ptr %5, align 8, !tbaa !3
  %7 = getelementptr inbounds nuw i8, ptr %6, i64 32
  %8 = load i64, ptr %7, align 8, !tbaa !27
  %9 = shl i64 %8, 10
  %10 = tail call noalias ptr @CRYPTO_malloc(i64 noundef %9, ptr noundef nonnull @.str.3, i32 noundef 36) #9
  store ptr %10, ptr %2, align 8, !tbaa !28
  %11 = icmp eq ptr %10, null
  br i1 %11, label %vector_alloc.exit, label %12

12:                                               ; preds = %4
  %13 = getelementptr inbounds nuw i8, ptr %0, i64 200
  store i64 %8, ptr %13, align 8, !tbaa !29
  br label %vector_alloc.exit

vector_alloc.exit:                                ; preds = %12, %4, %1
  %.0 = phi i32 [ 0, %1 ], [ 1, %12 ], [ 0, %4 ]
  ret i32 %.0
}